; Function Attrs: mustprogress nounwind uwtable
define hidden void @_ZN5ZMark20follow_partial_arrayE15ZMarkStackEntryb(ptr noundef nonnull align 64 dereferenceable(2652) %0, i64 %1, i1 noundef zeroext %2) local_unnamed_addr #0 align 2 {
  %4 = lshr i64 %1, 20
  %5 = and i64 %4, 17592186040320
  %6 = load i64, ptr @ZAddressHeapBase, align 8
  %7 = or i64 %6, %5
  %8 = inttoptr i64 %7 to ptr
  %9 = lshr i64 %1, 2
  %10 = and i64 %9, 1073741823
  %11 = icmp ult i64 %10, 513
  br i1 %11, label %12, label %22

12:                                               ; preds = %3
  %13 = getelementptr inbounds i64, ptr %8, i64 %10
  %.not.i = icmp eq i64 %10, 0
  br i1 %.not.i, label %_ZN5ZMark21follow_array_elementsEP8zpointermb.exit, label %.lr.ph.i.i.i

.lr.ph.i.i.i:                                     ; preds = %12
  %14 = load ptr, ptr %0, align 64
  %15 = getelementptr inbounds i8, ptr %14, i64 8
  %16 = load i8, ptr %15, align 8
  %17 = icmp eq i8 %16, 0
  br i1 %17, label %.lr.ph.split.us.i.i.i, label %.lr.ph.split.i.i.i

.lr.ph.split.us.i.i.i:                            ; preds = %.lr.ph.i.i.i, %.lr.ph.split.us.i.i.i
  %.08.us.i.i.i = phi ptr [ %18, %.lr.ph.split.us.i.i.i ], [ %8, %.lr.ph.i.i.i ]
  tail call void @_ZN8ZBarrier31mark_barrier_on_young_oop_fieldEPV8zpointer(ptr noundef %.08.us.i.i.i)
  %18 = getelementptr inbounds i8, ptr %.08.us.i.i.i, i64 8
  %19 = icmp ult ptr %18, %13
  br i1 %19, label %.lr.ph.split.us.i.i.i, label %_ZN5ZMark21follow_array_elementsEP8zpointermb.exit, !llvm.loop !11

.lr.ph.split.i.i.i:                               ; preds = %.lr.ph.i.i.i, %.lr.ph.split.i.i.i
  %.08.i.i.i = phi ptr [ %20, %.lr.ph.split.i.i.i ], [ %8, %.lr.ph.i.i.i ]
  tail call void @_ZN8ZBarrier29mark_barrier_on_old_oop_fieldEPV8zpointerb(ptr noundef %.08.i.i.i, i1 noundef zeroext %2)
  %20 = getelementptr inbounds i8, ptr %.08.i.i.i, i64 8
  %21 = icmp ult ptr %20, %13
  br i1 %21, label %.lr.ph.split.i.i.i, label %_ZN5ZMark21follow_array_elementsEP8zpointermb.exit, !llvm.loop !11

22:                                               ; preds = %3
  tail call void @_ZN5ZMark27follow_array_elements_largeEP8zpointermb(ptr noundef nonnull align 64 dereferenceable(2652) %0, ptr noundef %8, i64 noundef %10, i1 noundef zeroext %2)
  br label %_ZN5ZMark21follow_array_elementsEP8zpointermb.exit

_ZN5ZMark21follow_array_elementsEP8zpointermb.exit: ; preds = %.lr.ph.split.i.i.i, %.lr.ph.split.us.i.i.i, %12, %22
  ret void
}